; ModuleID = '60/422.c'
source_filename = "60/422.c"
target datalayout = "e-m:e-p270:32:32-p271:32:32-p272:64:64-i64:64-f80:128-n8:16:32:64-S128"
target triple = "x86_64-pc-linux-gnu"

@.str = private unnamed_addr constant [3 x i8] c"%d\00", align 1
@.str.1 = private unnamed_addr constant [7 x i8] c"empty\0A\00", align 1
@.str.2 = private unnamed_addr constant [7 x i8] c"%d %d\0A\00", align 1
@.str.3 = private unnamed_addr constant [6 x i8] c"empty\00", align 1

; Function Attrs: noinline nounwind uwtable
define dso_local i32 @main() #0 {
  %1 = alloca i32, align 4
  %2 = alloca i32, align 4
  %3 = alloca i32, align 4
  %4 = alloca i32, align 4
  %5 = alloca i32, align 4
  %6 = alloca i32, align 4
  store i32 0, i32* %1, align 4
  %7 = call i32 (i8*, ...) @__isoc99_scanf(i8* getelementptr inbounds ([3 x i8], [3 x i8]* @.str, i64 0, i64 0), i32* %2)
  %8 = load i32, i32* %2, align 4
  %9 = icmp eq i32 %8, 1
  br i1 %9, label %16, label %10

10:                                               ; preds = %0
  %11 = load i32, i32* %2, align 4
  %12 = icmp eq i32 %11, 2
  br i1 %12, label %16, label %13

13:                                               ; preds = %10
  %14 = load i32, i32* %2, align 4
  %15 = icmp eq i32 %14, 3
  br i1 %15, label %16, label %18

16:                                               ; preds = %13, %10, %0
  %17 = call i32 (i8*, ...) @printf(i8* getelementptr inbounds ([7 x i8], [7 x i8]* @.str.1, i64 0, i64 0))
  br label %67

18:                                               ; preds = %13
  store i32 0, i32* %6, align 4
  store i32 3, i32* %3, align 4
  br label %19

19:                                               ; preds = %58, %18
  %20 = load i32, i32* %3, align 4
  %21 = load i32, i32* %2, align 4
  %22 = icmp sle i32 %20, %21
  br i1 %22, label %23, label %61

23:                                               ; preds = %19
  store i32 1, i32* %5, align 4
  store i32 2, i32* %4, align 4
  br label %24

24:                                               ; preds = %41, %23
  %25 = load i32, i32* %4, align 4
  %26 = load i32, i32* %3, align 4
  %27 = icmp slt i32 %25, %26
  br i1 %27, label %28, label %44

28:                                               ; preds = %24
  %29 = load i32, i32* %3, align 4
  %30 = add nsw i32 %29, 2
  %31 = load i32, i32* %4, align 4
  %32 = srem i32 %30, %31
  %33 = icmp eq i32 %32, 0
  br i1 %33, label %39, label %34

34:                                               ; preds = %28
  %35 = load i32, i32* %3, align 4
  %36 = load i32, i32* %4, align 4
  %37 = srem i32 %35, %36
  %38 = icmp eq i32 %37, 0
  br i1 %38, label %39, label %40

39:                                               ; preds = %34, %28
  store i32 0, i32* %5, align 4
  br label %44

40:                                               ; preds = %34
  br label %41

41:                                               ; preds = %40
  %42 = load i32, i32* %4, align 4
  %43 = add nsw i32 %42, 1
  store i32 %43, i32* %4, align 4
  br label %24

44:                                               ; preds = %39, %24
  %45 = load i32, i32* %5, align 4
  %46 = icmp eq i32 %45, 1
  br i1 %46, label %47, label %57

47:                                               ; preds = %44
  %48 = load i32, i32* %3, align 4
  %49 = add nsw i32 %48, 2
  %50 = load i32, i32* %2, align 4
  %51 = icmp sle i32 %49, %50
  br i1 %51, label %52, label %57

52:                                               ; preds = %47
  store i32 1, i32* %6, align 4
  %53 = load i32, i32* %3, align 4
  %54 = load i32, i32* %3, align 4
  %55 = add nsw i32 %54, 2
  %56 = call i32 (i8*, ...) @printf(i8* getelementptr inbounds ([7 x i8], [7 x i8]* @.str.2, i64 0, i64 0), i32 %53, i32 %55)
  br label %57

57:                                               ; preds = %52, %47, %44
  br label %58

58:                                               ; preds = %57
  %59 = load i32, i32* %3, align 4
  %60 = add nsw i32 %59, 1
  store i32 %60, i32* %3, align 4
  br label %19

61:                                               ; preds = %19
  %62 = load i32, i32* %6, align 4
  %63 = icmp eq i32 %62, 0
  br i1 %63, label %64, label %66

64:                                               ; preds = %61
  %65 = call i32 (i8*, ...) @printf(i8* getelementptr inbounds ([6 x i8], [6 x i8]* @.str.3, i64 0, i64 0))
  br label %66

66:                                               ; preds = %64, %61
  br label %67

67:                                               ; preds = %66, %16
  ret i32 0
}

declare dso_local i32 @__isoc99_scanf(i8*, ...) #1

declare dso_local i32 @printf(i8*, ...) #1


!llvm.module.flags = !{!0}
!llvm.ident = !{!1}

!0 = !{i32 1, !"wchar_size", i32 4}
!1 = !{!"clang version 10.0.0-4ubuntu1 "}
