; ModuleID = 'source-C-CXX/59/422.c'
source_filename = "source-C-CXX/59/422.c"
target datalayout = "e-m:e-p270:32:32-p271:32:32-p272:64:64-i64:64-f80:128-n8:16:32:64-S128"
target triple = "x86_64-pc-linux-gnu"

@.str = private unnamed_addr constant [3 x i8] c"%d\00", align 1
@.str.2 = private unnamed_addr constant [7 x i8] c"%d %d\0A\00", align 1
@str = private unnamed_addr constant [6 x i8] c"empty\00", align 1

; Function Attrs: nofree nounwind sspstrong uwtable
define dso_local i32 @main() local_unnamed_addr #0 {
  %1 = alloca i32, align 4
  %2 = bitcast i32* %1 to i8*
  call void @llvm.lifetime.start.p0i8(i64 4, i8* nonnull %2) #4
  %3 = call i32 (i8*, ...) @__isoc99_scanf(i8* getelementptr inbounds ([3 x i8], [3 x i8]* @.str, i64 0, i64 0), i32* nonnull %1)
  %4 = load i32, i32* %1, align 4, !tbaa !5
  %5 = add i32 %4, -1
  %6 = icmp ult i32 %5, 3
  br i1 %6, label %9, label %7

7:                                                ; preds = %0
  %8 = icmp slt i32 %4, 3
  br i1 %8, label %38, label %11

9:                                                ; preds = %0
  %10 = call i32 @puts(i8* nonnull dereferenceable(1) getelementptr inbounds ([6 x i8], [6 x i8]* @str, i64 0, i64 0))
  br label %40

11:                                               ; preds = %7, %31
  %12 = phi i32 [ %32, %31 ], [ %4, %7 ]
  %13 = phi i32 [ %33, %31 ], [ 0, %7 ]
  %14 = phi i32 [ %34, %31 ], [ 3, %7 ]
  %15 = add nuw nsw i32 %14, 2
  br label %18

16:                                               ; preds = %22
  %17 = icmp eq i32 %25, %14
  br i1 %17, label %26, label %18, !llvm.loop !9

18:                                               ; preds = %11, %16
  %19 = phi i32 [ %25, %16 ], [ 2, %11 ]
  %20 = urem i32 %15, %19
  %21 = icmp eq i32 %20, 0
  br i1 %21, label %31, label %22

22:                                               ; preds = %18
  %23 = urem i32 %14, %19
  %24 = icmp eq i32 %23, 0
  %25 = add nuw nsw i32 %19, 1
  br i1 %24, label %31, label %16

26:                                               ; preds = %16
  %27 = icmp sgt i32 %15, %12
  br i1 %27, label %31, label %28

28:                                               ; preds = %26
  %29 = call i32 (i8*, ...) @printf(i8* nonnull dereferenceable(1) getelementptr inbounds ([7 x i8], [7 x i8]* @.str.2, i64 0, i64 0), i32 %14, i32 %15)
  %30 = load i32, i32* %1, align 4, !tbaa !5
  br label %31

31:                                               ; preds = %22, %18, %26, %28
  %32 = phi i32 [ %30, %28 ], [ %12, %26 ], [ %12, %18 ], [ %12, %22 ]
  %33 = phi i32 [ 1, %28 ], [ %13, %26 ], [ %13, %18 ], [ %13, %22 ]
  %34 = add nuw nsw i32 %14, 1
  %35 = icmp slt i32 %14, %32
  br i1 %35, label %11, label %36, !llvm.loop !11

36:                                               ; preds = %31
  %37 = icmp eq i32 %33, 0
  br i1 %37, label %38, label %40

38:                                               ; preds = %7, %36
  %39 = call i32 (i8*, ...) @printf(i8* nonnull dereferenceable(1) getelementptr inbounds ([6 x i8], [6 x i8]* @str, i64 0, i64 0))
  br label %40

40:                                               ; preds = %36, %38, %9
  call void @llvm.lifetime.end.p0i8(i64 4, i8* nonnull %2) #4
  ret i32 0
}

; Function Attrs: argmemonly mustprogress nofree nosync nounwind willreturn
declare void @llvm.lifetime.start.p0i8(i64 immarg, i8* nocapture) #1

; Function Attrs: nofree nounwind
declare noundef i32 @__isoc99_scanf(i8* nocapture noundef readonly, ...) local_unnamed_addr #2

; Function Attrs: nofree nounwind
declare noundef i32 @printf(i8* nocapture noundef readonly, ...) local_unnamed_addr #2

; Function Attrs: argmemonly mustprogress nofree nosync nounwind willreturn
declare void @llvm.lifetime.end.p0i8(i64 immarg, i8* nocapture) #1

; Function Attrs: nofree nounwind
declare noundef i32 @puts(i8* nocapture noundef readonly) local_unnamed_addr #3


!llvm.module.flags = !{!0, !1, !2, !3}
!llvm.ident = !{!4}

!0 = !{i32 1, !"wchar_size", i32 4}
!1 = !{i32 7, !"PIC Level", i32 2}
!2 = !{i32 7, !"PIE Level", i32 2}
!3 = !{i32 7, !"uwtable", i32 1}
!4 = !{!"clang version 13.0.0"}
!5 = !{!6, !6, i64 0}
!6 = !{!"int", !7, i64 0}
!7 = !{!"omnipotent char", !8, i64 0}
!8 = !{!"Simple C/C++ TBAA"}
!9 = distinct !{!9, !10}
!10 = !{!"llvm.loop.mustprogress"}
!11 = distinct !{!11, !10}
